target datalayout = "e-m:e-p270:32:32-p271:32:32-p272:64:64-i64:64-i128:128-f80:128-n8:16:32:64-S128"
target triple = "x86_64-pc-linux-gnu"

%struct.dl_phdr_info = type { i64, ptr, ptr, i16, i64, i64, i64, ptr }
%struct.Elf64_Phdr = type { i32, i32, i64, i64, i64, i64, i64, i64 }

@.str.103 = private unnamed_addr constant [15 x i8] c"/proc/self/exe\00", align 1

; Function Attrs: inlinehint mustprogress nounwind uwtable
define linkonce_odr dso_local noundef ptr @_ZN4absl8bit_castIPvmTnNSt9enable_ifIXaaaaeqstT_stT0_sr3std21is_trivially_copyableIS4_EE5valuesr3std21is_trivially_copyableIS3_EE5valueEiE4typeELi0EEES3_RKS4_(ptr noundef nonnull align 8 dereferenceable(8) %0) #11 comdat {
  %2 = alloca ptr, align 8
  store ptr %0, ptr %2, align 8, !tbaa !86
  %3 = load ptr, ptr %2, align 8, !tbaa !86
  %4 = load ptr, ptr %3, align 8, !tbaa !63
  ret ptr %4
}

; Function Attrs: mustprogress uwtable
define internal noundef i32 @_ZL15FilterElfHeaderP12dl_phdr_infomPv(ptr noundef %0, i64 noundef %1, ptr noundef %2) #9 {
  %4 = alloca i32, align 4
  %5 = alloca ptr, align 8
  %6 = alloca i64, align 8
  %7 = alloca ptr, align 8
  %8 = alloca i32, align 4
  %9 = alloca i32, align 4
  %10 = alloca ptr, align 8
  %11 = alloca i64, align 8
  %12 = alloca i64, align 8
  %13 = alloca ptr, align 8
  store ptr %0, ptr %5, align 8, !tbaa !94
  store i64 %1, ptr %6, align 8, !tbaa !62
  store ptr %2, ptr %7, align 8, !tbaa !10
  call void @llvm.lifetime.start.p0(i64 4, ptr %8) #3
  store i32 0, ptr %8, align 4, !tbaa !4
  br label %14

14:                                               ; preds = %97, %3
  %15 = load i32, ptr %8, align 4, !tbaa !4
  %16 = load ptr, ptr %5, align 8, !tbaa !94
  %17 = getelementptr inbounds nuw %struct.dl_phdr_info, ptr %16, i32 0, i32 3
  %18 = load i16, ptr %17, align 8, !tbaa !96
  %19 = zext i16 %18 to i32
  %20 = icmp slt i32 %15, %19
  br i1 %20, label %22, label %21

21:                                               ; preds = %14
  store i32 2, ptr %9, align 4
  br label %100

22:                                               ; preds = %14
  %23 = load ptr, ptr %5, align 8, !tbaa !94
  %24 = getelementptr inbounds nuw %struct.dl_phdr_info, ptr %23, i32 0, i32 2
  %25 = load ptr, ptr %24, align 8, !tbaa !100
  %26 = load i32, ptr %8, align 4, !tbaa !4
  %27 = sext i32 %26 to i64
  %28 = getelementptr inbounds %struct.Elf64_Phdr, ptr %25, i64 %27
  %29 = getelementptr inbounds nuw %struct.Elf64_Phdr, ptr %28, i32 0, i32 0
  %30 = load i32, ptr %29, align 8, !tbaa !101
  %31 = icmp eq i32 %30, 1
  br i1 %31, label %32, label %96

32:                                               ; preds = %22
  %33 = load ptr, ptr %5, align 8, !tbaa !94
  %34 = getelementptr inbounds nuw %struct.dl_phdr_info, ptr %33, i32 0, i32 2
  %35 = load ptr, ptr %34, align 8, !tbaa !100
  %36 = load i32, ptr %8, align 4, !tbaa !4
  %37 = sext i32 %36 to i64
  %38 = getelementptr inbounds %struct.Elf64_Phdr, ptr %35, i64 %37
  %39 = getelementptr inbounds nuw %struct.Elf64_Phdr, ptr %38, i32 0, i32 1
  %40 = load i32, ptr %39, align 4, !tbaa !103
  %41 = icmp eq i32 %40, 5
  br i1 %41, label %42, label %96

42:                                               ; preds = %32
  call void @llvm.lifetime.start.p0(i64 8, ptr %10) #3
  call void @llvm.lifetime.start.p0(i64 8, ptr %11) #3
  %43 = load ptr, ptr %5, align 8, !tbaa !94
  %44 = getelementptr inbounds nuw %struct.dl_phdr_info, ptr %43, i32 0, i32 0
  %45 = load i64, ptr %44, align 8, !tbaa !104
  %46 = load ptr, ptr %5, align 8, !tbaa !94
  %47 = getelementptr inbounds nuw %struct.dl_phdr_info, ptr %46, i32 0, i32 2
  %48 = load ptr, ptr %47, align 8, !tbaa !100
  %49 = load i32, ptr %8, align 4, !tbaa !4
  %50 = sext i32 %49 to i64
  %51 = getelementptr inbounds %struct.Elf64_Phdr, ptr %48, i64 %50
  %52 = getelementptr inbounds nuw %struct.Elf64_Phdr, ptr %51, i32 0, i32 3
  %53 = load i64, ptr %52, align 8, !tbaa !105
  %54 = add i64 %45, %53
  store i64 %54, ptr %11, align 8, !tbaa !62
  %55 = call noundef ptr @_ZN4absl8bit_castIPvmTnNSt9enable_ifIXaaaaeqstT_stT0_sr3std21is_trivially_copyableIS4_EE5valuesr3std21is_trivially_copyableIS3_EE5valueEiE4typeELi0EEES3_RKS4_(ptr noundef nonnull align 8 dereferenceable(8) %11)
  call void @llvm.lifetime.end.p0(i64 8, ptr %11) #3
  store ptr %55, ptr %10, align 8, !tbaa !10
  call void @llvm.lifetime.start.p0(i64 8, ptr %12) #3
  %56 = load ptr, ptr %5, align 8, !tbaa !94
  %57 = getelementptr inbounds nuw %struct.dl_phdr_info, ptr %56, i32 0, i32 2
  %58 = load ptr, ptr %57, align 8, !tbaa !100
  %59 = load i32, ptr %8, align 4, !tbaa !4
  %60 = sext i32 %59 to i64
  %61 = getelementptr inbounds %struct.Elf64_Phdr, ptr %58, i64 %60
  %62 = getelementptr inbounds nuw %struct.Elf64_Phdr, ptr %61, i32 0, i32 6
  %63 = load i64, ptr %62, align 8, !tbaa !106
  store i64 %63, ptr %12, align 8, !tbaa !62
  call void @llvm.lifetime.start.p0(i64 8, ptr %13) #3
  %64 = load ptr, ptr %5, align 8, !tbaa !94
  %65 = getelementptr inbounds nuw %struct.dl_phdr_info, ptr %64, i32 0, i32 1
  %66 = load ptr, ptr %65, align 8, !tbaa !107
  %67 = icmp ne ptr %66, null
  br i1 %67, label %68, label %80

68:                                               ; preds = %42
  %69 = load ptr, ptr %5, align 8, !tbaa !94
  %70 = getelementptr inbounds nuw %struct.dl_phdr_info, ptr %69, i32 0, i32 1
  %71 = load ptr, ptr %70, align 8, !tbaa !107
  %72 = getelementptr inbounds i8, ptr %71, i64 0
  %73 = load i8, ptr %72, align 1, !tbaa !63
  %74 = sext i8 %73 to i32
  %75 = icmp ne i32 %74, 0
  br i1 %75, label %76, label %80

76:                                               ; preds = %68
  %77 = load ptr, ptr %5, align 8, !tbaa !94
  %78 = getelementptr inbounds nuw %struct.dl_phdr_info, ptr %77, i32 0, i32 1
  %79 = load ptr, ptr %78, align 8, !tbaa !107
  store ptr %79, ptr %13, align 8, !tbaa !12
  br label %81

80:                                               ; preds = %68, %42
  store ptr @.str.103, ptr %13, align 8, !tbaa !12
  br label %81

81:                                               ; preds = %80, %76
  %82 = load ptr, ptr %10, align 8, !tbaa !10
  %83 = load ptr, ptr %10, align 8, !tbaa !10
  %84 = load i64, ptr %12, align 8, !tbaa !62
  %85 = getelementptr inbounds nuw i8, ptr %83, i64 %84
  %86 = load ptr, ptr %5, align 8, !tbaa !94
  %87 = getelementptr inbounds nuw %struct.dl_phdr_info, ptr %86, i32 0, i32 2
  %88 = load ptr, ptr %87, align 8, !tbaa !100
  %89 = load i32, ptr %8, align 4, !tbaa !4
  %90 = sext i32 %89 to i64
  %91 = getelementptr inbounds %struct.Elf64_Phdr, ptr %88, i64 %90
  %92 = getelementptr inbounds nuw %struct.Elf64_Phdr, ptr %91, i32 0, i32 2
  %93 = load i64, ptr %92, align 8, !tbaa !108
  %94 = load ptr, ptr %13, align 8, !tbaa !12
  %95 = call noundef zeroext i1 @_ZN4absl18debugging_internal23RegisterFileMappingHintEPKvS2_mPKc(ptr noundef %82, ptr noundef %85, i64 noundef %93, ptr noundef %94)
  store i32 1, ptr %4, align 4
  store i32 1, ptr %9, align 4
  call void @llvm.lifetime.end.p0(i64 8, ptr %13) #3
  call void @llvm.lifetime.end.p0(i64 8, ptr %12) #3
  call void @llvm.lifetime.end.p0(i64 8, ptr %10) #3
  br label %100

96:                                               ; preds = %32, %22
  br label %97

97:                                               ; preds = %96
  %98 = load i32, ptr %8, align 4, !tbaa !4
  %99 = add nsw i32 %98, 1
  store i32 %99, ptr %8, align 4, !tbaa !4
  br label %14, !llvm.loop !109

100:                                              ; preds = %81, %21
  call void @llvm.lifetime.end.p0(i64 4, ptr %8) #3
  %101 = load i32, ptr %9, align 4
  switch i32 %101, label %105 [
    i32 2, label %102
    i32 1, label %103
  ]

102:                                              ; preds = %100
  store i32 1, ptr %4, align 4
  br label %103

103:                                              ; preds = %102, %100
  %104 = load i32, ptr %4, align 4
  ret i32 %104

105:                                              ; preds = %100
  unreachable
}