; Function Attrs: mustprogress uwtable
define internal noundef i32 @_ZL15FilterElfHeaderP12dl_phdr_infomPv(ptr noundef readonly captures(none) %0, i64 %1, ptr readnone captures(none) %2) #9 {
  %4 = getelementptr inbounds nuw i8, ptr %0, i64 24
  %5 = load i16, ptr %4, align 8, !tbaa !79
  %.not29 = icmp eq i16 %5, 0
  br i1 %.not29, label %.loopexit, label %.lr.ph

.lr.ph:                                           ; preds = %3
  %6 = getelementptr inbounds nuw i8, ptr %0, i64 16
  %7 = load ptr, ptr %6, align 8, !tbaa !83
  %wide.trip.count = zext i16 %5 to i64
  br label %8

8:                                                ; preds = %.lr.ph, %34
  %indvars.iv = phi i64 [ 0, %.lr.ph ], [ %indvars.iv.next, %34 ]
  %9 = getelementptr inbounds nuw %struct.Elf64_Phdr, ptr %7, i64 %indvars.iv
  %10 = load i32, ptr %9, align 8, !tbaa !84
  %11 = icmp eq i32 %10, 1
  br i1 %11, label %12, label %34

12:                                               ; preds = %8
  %13 = getelementptr inbounds nuw i8, ptr %9, i64 4
  %14 = load i32, ptr %13, align 4, !tbaa !86
  %15 = icmp eq i32 %14, 5
  br i1 %15, label %16, label %34

16:                                               ; preds = %12
  %17 = load i64, ptr %0, align 8, !tbaa !87
  %18 = getelementptr inbounds nuw %struct.Elf64_Phdr, ptr %7, i64 %indvars.iv, i32 3
  %19 = load i64, ptr %18, align 8, !tbaa !88
  %20 = add i64 %19, %17
  %21 = inttoptr i64 %20 to ptr
  %22 = getelementptr inbounds nuw %struct.Elf64_Phdr, ptr %7, i64 %indvars.iv, i32 6
  %23 = load i64, ptr %22, align 8, !tbaa !89
  %24 = getelementptr inbounds nuw i8, ptr %0, i64 8
  %25 = load ptr, ptr %24, align 8, !tbaa !90
  %.not = icmp eq ptr %25, null
  br i1 %.not, label %28, label %26

26:                                               ; preds = %16
  %27 = load i8, ptr %25, align 1, !tbaa !37
  %.not26 = icmp eq i8 %27, 0
  br i1 %.not26, label %28, label %29

28:                                               ; preds = %26, %16
  br label %29

29:                                               ; preds = %26, %28
  %.0 = phi ptr [ @.str.103, %28 ], [ %25, %26 ]
  %30 = getelementptr inbounds nuw i8, ptr %21, i64 %23
  %31 = getelementptr inbounds nuw %struct.Elf64_Phdr, ptr %7, i64 %indvars.iv, i32 2
  %32 = load i64, ptr %31, align 8, !tbaa !91
  %33 = tail call noundef zeroext i1 @_ZN4absl18debugging_internal23RegisterFileMappingHintEPKvS2_mPKc(ptr noundef %21, ptr noundef %30, i64 noundef %32, ptr noundef nonnull %.0)
  br label %.loopexit

34:                                               ; preds = %8, %12
  %indvars.iv.next = add nuw nsw i64 %indvars.iv, 1
  %exitcond.not = icmp eq i64 %indvars.iv.next, %wide.trip.count
  br i1 %exitcond.not, label %.loopexit, label %8, !llvm.loop !92

.loopexit:                                        ; preds = %34, %3, %29
  ret i32 1
}